target datalayout = "e-m:e-p270:32:32-p271:32:32-p272:64:64-i64:64-i128:128-f80:128-n8:16:32:64-S128"
target triple = "x86_64-pc-linux-gnu"

%struct.crypto_ex_data_st = type { ptr }
%struct.ssl_session_st = type { i32, i32, i32, i32, [48 x i8], i32, [32 x i8], i32, [32 x i8], ptr, ptr, ptr, i64, i64, i64, ptr, %struct.crypto_ex_data_st, ptr, ptr, ptr, ptr, i64, i64, ptr, i64, ptr, [32 x i8], [64 x i8], i32, i32, i8 }
%struct.ssl_st = type { i32, i16, i16, ptr, ptr, ptr, ptr, ptr, i32, i32, ptr, ptr, i32, i32, ptr, ptr, ptr, ptr, ptr, ptr, ptr, ptr, i32, i32, [32 x i8], ptr, ptr, ptr, ptr, ptr, ptr, ptr, i64, %struct.crypto_ex_data_st, ptr, i32, i32, i32, i32, i16, ptr, i32, i64, ptr, ptr, ptr, ptr, ptr, ptr, i32, i32, ptr, ptr, i8, i8, i32 }
%struct.ssl3_state_st = type { [8 x i8], [8 x i8], [32 x i8], [32 x i8], i8, i8, %struct.ssl3_buffer_st, %struct.ssl3_buffer_st, %struct.ssl3_record_st, i8, i32, i32, i32, i32, ptr, ptr, %struct.env_md_ctx_st, %struct.env_md_ctx_st, i8, i32, [2 x i8], i32, i8, i8, ptr, ptr, ptr, %struct.anon, [64 x i8], i8, [64 x i8], i8, i32, i32, ptr, i64, ptr, i64, i8, [64 x i8] }
%struct.ssl3_buffer_st = type { ptr, i16, i16, i16 }
%struct.ssl3_record_st = type { i8, i16, ptr }
%struct.env_md_ctx_st = type { ptr, ptr, ptr, ptr }
%struct.anon = type { [64 x i8], i32, [64 x i8], i32, i64, i32, ptr, i32, i32, %union.anon, %union.anon.0, i8, i32, ptr, ptr, i64, ptr, i8, i8, i8, i8, i32, i8, ptr, i64, i8, ptr, i8, i8, i8, %struct.ssl_ecdh_ctx_st, ptr, i16 }
%union.anon = type { i32 }
%union.anon.0 = type { i16 }
%struct.ssl_ecdh_ctx_st = type { ptr, ptr }

; Function Attrs: nounwind uwtable
define hidden i32 @SSL_get_tls_unique(ptr noundef %0, ptr noundef %1, ptr noundef %2, i64 noundef %3) #0 {
  %5 = alloca i32, align 4
  %6 = alloca ptr, align 8
  %7 = alloca ptr, align 8
  %8 = alloca ptr, align 8
  %9 = alloca i64, align 8
  %10 = alloca ptr, align 8
  %11 = alloca i64, align 8
  %12 = alloca i32, align 4
  store ptr %0, ptr %6, align 8, !tbaa !80
  store ptr %1, ptr %7, align 8, !tbaa !55
  store ptr %2, ptr %8, align 8, !tbaa !172
  store i64 %3, ptr %9, align 8, !tbaa !174
  call void @llvm.lifetime.start.p0(i64 8, ptr %10) #8
  %13 = load ptr, ptr %6, align 8, !tbaa !80
  %14 = getelementptr inbounds nuw %struct.ssl_st, ptr %13, i32 0, i32 14
  %15 = load ptr, ptr %14, align 8, !tbaa !152
  %16 = getelementptr inbounds nuw %struct.ssl3_state_st, ptr %15, i32 0, i32 28
  %17 = getelementptr inbounds [64 x i8], ptr %16, i64 0, i64 0
  store ptr %17, ptr %10, align 8, !tbaa !55
  call void @llvm.lifetime.start.p0(i64 8, ptr %11) #8
  %18 = load ptr, ptr %6, align 8, !tbaa !80
  %19 = getelementptr inbounds nuw %struct.ssl_st, ptr %18, i32 0, i32 14
  %20 = load ptr, ptr %19, align 8, !tbaa !152
  %21 = getelementptr inbounds nuw %struct.ssl3_state_st, ptr %20, i32 0, i32 29
  %22 = load i8, ptr %21, align 8, !tbaa !175
  %23 = zext i8 %22 to i64
  store i64 %23, ptr %11, align 8, !tbaa !174
  %24 = load ptr, ptr %6, align 8, !tbaa !80
  %25 = getelementptr inbounds nuw %struct.ssl_st, ptr %24, i32 0, i32 54
  %26 = load i8, ptr %25, align 1
  %27 = and i8 %26, 1
  %28 = zext i8 %27 to i32
  %29 = icmp ne i32 %28, 0
  br i1 %29, label %30, label %52

30:                                               ; preds = %4
  %31 = load ptr, ptr %6, align 8, !tbaa !80
  %32 = getelementptr inbounds nuw %struct.ssl_st, ptr %31, i32 0, i32 25
  %33 = load ptr, ptr %32, align 8, !tbaa !133
  %34 = getelementptr inbounds nuw %struct.ssl_session_st, ptr %33, i32 0, i32 30
  %35 = load i8, ptr %34, align 8
  %36 = and i8 %35, 1
  %37 = zext i8 %36 to i32
  %38 = icmp ne i32 %37, 0
  br i1 %38, label %40, label %39

39:                                               ; preds = %30
  br label %79

40:                                               ; preds = %30
  %41 = load ptr, ptr %6, align 8, !tbaa !80
  %42 = getelementptr inbounds nuw %struct.ssl_st, ptr %41, i32 0, i32 14
  %43 = load ptr, ptr %42, align 8, !tbaa !152
  %44 = getelementptr inbounds nuw %struct.ssl3_state_st, ptr %43, i32 0, i32 30
  %45 = getelementptr inbounds [64 x i8], ptr %44, i64 0, i64 0
  store ptr %45, ptr %10, align 8, !tbaa !55
  %46 = load ptr, ptr %6, align 8, !tbaa !80
  %47 = getelementptr inbounds nuw %struct.ssl_st, ptr %46, i32 0, i32 14
  %48 = load ptr, ptr %47, align 8, !tbaa !152
  %49 = getelementptr inbounds nuw %struct.ssl3_state_st, ptr %48, i32 0, i32 31
  %50 = load i8, ptr %49, align 1, !tbaa !176
  %51 = zext i8 %50 to i64
  store i64 %51, ptr %11, align 8, !tbaa !174
  br label %52

52:                                               ; preds = %40, %4
  %53 = load ptr, ptr %6, align 8, !tbaa !80
  %54 = getelementptr inbounds nuw %struct.ssl_st, ptr %53, i32 0, i32 14
  %55 = load ptr, ptr %54, align 8, !tbaa !152
  %56 = getelementptr inbounds nuw %struct.ssl3_state_st, ptr %55, i32 0, i32 5
  %57 = load i8, ptr %56, align 1, !tbaa !177
  %58 = icmp ne i8 %57, 0
  br i1 %58, label %59, label %64

59:                                               ; preds = %52
  %60 = load ptr, ptr %6, align 8, !tbaa !80
  %61 = getelementptr inbounds nuw %struct.ssl_st, ptr %60, i32 0, i32 0
  %62 = load i32, ptr %61, align 8, !tbaa !178
  %63 = icmp slt i32 %62, 769
  br i1 %63, label %64, label %65

64:                                               ; preds = %59, %52
  br label %79

65:                                               ; preds = %59
  %66 = load i64, ptr %11, align 8, !tbaa !174
  %67 = load ptr, ptr %8, align 8, !tbaa !172
  store i64 %66, ptr %67, align 8, !tbaa !174
  %68 = load i64, ptr %11, align 8, !tbaa !174
  %69 = load i64, ptr %9, align 8, !tbaa !174
  %70 = icmp ugt i64 %68, %69
  br i1 %70, label %71, label %74

71:                                               ; preds = %65
  %72 = load i64, ptr %9, align 8, !tbaa !174
  %73 = load ptr, ptr %8, align 8, !tbaa !172
  store i64 %72, ptr %73, align 8, !tbaa !174
  br label %74

74:                                               ; preds = %71, %65
  %75 = load ptr, ptr %7, align 8, !tbaa !55
  %76 = load ptr, ptr %10, align 8, !tbaa !55
  %77 = load ptr, ptr %8, align 8, !tbaa !172
  %78 = load i64, ptr %77, align 8, !tbaa !174
  call void @llvm.memcpy.p0.p0.i64(ptr align 1 %75, ptr align 1 %76, i64 %78, i1 false)
  store i32 1, ptr %5, align 4
  store i32 1, ptr %12, align 4
  br label %83

79:                                               ; preds = %64, %39
  %80 = load ptr, ptr %8, align 8, !tbaa !172
  store i64 0, ptr %80, align 8, !tbaa !174
  %81 = load ptr, ptr %7, align 8, !tbaa !55
  %82 = load i64, ptr %9, align 8, !tbaa !174
  call void @llvm.memset.p0.i64(ptr align 1 %81, i8 0, i64 %82, i1 false)
  store i32 0, ptr %5, align 4
  store i32 1, ptr %12, align 4
  br label %83

83:                                               ; preds = %79, %74
  call void @llvm.lifetime.end.p0(i64 8, ptr %11) #8
  call void @llvm.lifetime.end.p0(i64 8, ptr %10) #8
  %84 = load i32, ptr %5, align 4
  ret i32 %84
}